(lp0
S'poi'
p1
aS'salary'
p2
aS'total_payments'
p3
aS'bonus'
p4
aS'total_wealth'
p5
aS'exercised_stock_options'
p6
aS'total_stock_value'
p7
aS'deferred_income'
p8
aS'restricted_stock'
p9
aS'long_term_incentive'
p10
a.